
AutoParkingCar.elf:     file format elf32-littlearm

Sections:
Idx Name          Size      VMA       LMA       File off  Algn
  0 .isr_vector   00000194  08000000  08000000  00010000  2**0
                  CONTENTS, ALLOC, LOAD, READONLY, DATA
  1 .text         00000978  08000194  08000194  00010194  2**2
                  CONTENTS, ALLOC, LOAD, READONLY, CODE
  2 .rodata       00000020  08000b0c  08000b0c  00010b0c  2**2
                  CONTENTS, ALLOC, LOAD, READONLY, DATA
  3 .ARM.extab    00000000  08000b2c  08000b2c  00010b34  2**0
                  CONTENTS
  4 .ARM          00000000  08000b2c  08000b2c  00010b34  2**0
                  CONTENTS
  5 .preinit_array 00000000  08000b2c  08000b34  00010b34  2**0
                  CONTENTS, ALLOC, LOAD, DATA
  6 .init_array   00000004  08000b2c  08000b2c  00010b2c  2**2
                  CONTENTS, ALLOC, LOAD, DATA
  7 .fini_array   00000004  08000b30  08000b30  00010b30  2**2
                  CONTENTS, ALLOC, LOAD, DATA
  8 .data         00000000  20000000  20000000  00010b34  2**0
                  CONTENTS, ALLOC, LOAD, DATA
  9 .bss          00000234  20000000  08000b34  00020000  2**2
                  ALLOC
 10 ._user_heap_stack 00000604  20000234  08000b34  00020234  2**0
                  ALLOC
 11 .ARM.attributes 00000030  00000000  00000000  00010b34  2**0
                  CONTENTS, READONLY
 12 .comment      0000007b  00000000  00000000  00010b64  2**0
                  CONTENTS, READONLY
 13 .debug_frame  0000002c  00000000  00000000  00010be0  2**2
                  CONTENTS, READONLY, DEBUGGING

Disassembly of section .text:

08000194 <__do_global_dtors_aux>:
 8000194:	b510      	push	{r4, lr}
 8000196:	4c05      	ldr	r4, [pc, #20]	; (80001ac <__do_global_dtors_aux+0x18>)
 8000198:	7823      	ldrb	r3, [r4, #0]
 800019a:	b933      	cbnz	r3, 80001aa <__do_global_dtors_aux+0x16>
 800019c:	4b04      	ldr	r3, [pc, #16]	; (80001b0 <__do_global_dtors_aux+0x1c>)
 800019e:	b113      	cbz	r3, 80001a6 <__do_global_dtors_aux+0x12>
 80001a0:	4804      	ldr	r0, [pc, #16]	; (80001b4 <__do_global_dtors_aux+0x20>)
 80001a2:	f3af 8000 	nop.w
 80001a6:	2301      	movs	r3, #1
 80001a8:	7023      	strb	r3, [r4, #0]
 80001aa:	bd10      	pop	{r4, pc}
 80001ac:	20000000 	.word	0x20000000
 80001b0:	00000000 	.word	0x00000000
 80001b4:	08000af4 	.word	0x08000af4

080001b8 <frame_dummy>:
 80001b8:	b508      	push	{r3, lr}
 80001ba:	4b03      	ldr	r3, [pc, #12]	; (80001c8 <frame_dummy+0x10>)
 80001bc:	b11b      	cbz	r3, 80001c6 <frame_dummy+0xe>
 80001be:	4903      	ldr	r1, [pc, #12]	; (80001cc <frame_dummy+0x14>)
 80001c0:	4803      	ldr	r0, [pc, #12]	; (80001d0 <frame_dummy+0x18>)
 80001c2:	f3af 8000 	nop.w
 80001c6:	bd08      	pop	{r3, pc}
 80001c8:	00000000 	.word	0x00000000
 80001cc:	20000004 	.word	0x20000004
 80001d0:	08000af4 	.word	0x08000af4

080001d4 <Increment_Pulse_CallBack>:
 80001d4:	4a04      	ldr	r2, [pc, #16]	; (80001e8 <Increment_Pulse_CallBack+0x14>)
 80001d6:	6813      	ldr	r3, [r2, #0]
 80001d8:	3301      	adds	r3, #1
 80001da:	6013      	str	r3, [r2, #0]
 80001dc:	4a03      	ldr	r2, [pc, #12]	; (80001ec <Increment_Pulse_CallBack+0x18>)
 80001de:	6813      	ldr	r3, [r2, #0]
 80001e0:	3301      	adds	r3, #1
 80001e2:	6013      	str	r3, [r2, #0]
 80001e4:	4770      	bx	lr
 80001e6:	bf00      	nop
 80001e8:	2000001c 	.word	0x2000001c
 80001ec:	20000020 	.word	0x20000020

080001f0 <HAL_MOTOR_Init>:
 80001f0:	e92d 43f8 	stmdb	sp!, {r3, r4, r5, r6, r7, r8, r9, lr}
 80001f4:	4617      	mov	r7, r2
 80001f6:	4a1b      	ldr	r2, [pc, #108]	; (8000264 <HAL_MOTOR_Init+0x74>)
 80001f8:	f89d 5020 	ldrb.w	r5, [sp, #32]
 80001fc:	f89d 6024 	ldrb.w	r6, [sp, #36]	; 0x24
 8000200:	7010      	strb	r0, [r2, #0]
 8000202:	4698      	mov	r8, r3
 8000204:	7097      	strb	r7, [r2, #2]
 8000206:	7115      	strb	r5, [r2, #4]
 8000208:	7051      	strb	r1, [r2, #1]
 800020a:	70d3      	strb	r3, [r2, #3]
 800020c:	7156      	strb	r6, [r2, #5]
 800020e:	2201      	movs	r2, #1
 8000210:	f89d 402c 	ldrb.w	r4, [sp, #44]	; 0x2c
 8000214:	f89d 9030 	ldrb.w	r9, [sp, #48]	; 0x30
 8000218:	f000 f958 	bl	80004cc <MGPIO_vSetPinMode>
 800021c:	4641      	mov	r1, r8
 800021e:	4638      	mov	r0, r7
 8000220:	2201      	movs	r2, #1
 8000222:	f000 f953 	bl	80004cc <MGPIO_vSetPinMode>
 8000226:	4631      	mov	r1, r6
 8000228:	4628      	mov	r0, r5
 800022a:	2202      	movs	r2, #2
 800022c:	f000 f94e 	bl	80004cc <MGPIO_vSetPinMode>
 8000230:	2201      	movs	r2, #1
 8000232:	4631      	mov	r1, r6
 8000234:	4628      	mov	r0, r5
 8000236:	f000 f989 	bl	800054c <MGPIO_vSetAlternativeFunction>
 800023a:	4620      	mov	r0, r4
 800023c:	f000 f83c 	bl	80002b8 <MEXTI_vEnableInterrupt>
 8000240:	4620      	mov	r0, r4
 8000242:	2100      	movs	r1, #0
 8000244:	f000 f842 	bl	80002cc <MEXTI_vInterruptTrigger>
 8000248:	4621      	mov	r1, r4
 800024a:	2001      	movs	r0, #1
 800024c:	f000 f81e 	bl	800028c <SYSCFG_vConfigEXTI_Line>
 8000250:	4620      	mov	r0, r4
 8000252:	4905      	ldr	r1, [pc, #20]	; (8000268 <HAL_MOTOR_Init+0x78>)
 8000254:	f000 f85c 	bl	8000310 <MEXTI_vCallBack>
 8000258:	4648      	mov	r0, r9
 800025a:	e8bd 43f8 	ldmia.w	sp!, {r3, r4, r5, r6, r7, r8, r9, lr}
 800025e:	f000 b9d5 	b.w	800060c <MNVIC_vEnableInterrupt>
 8000262:	bf00      	nop
 8000264:	20000228 	.word	0x20000228
 8000268:	080001d5 	.word	0x080001d5

0800026c <HAL_MOTOR_STOP>:
 800026c:	b510      	push	{r4, lr}
 800026e:	4c06      	ldr	r4, [pc, #24]	; (8000288 <HAL_MOTOR_STOP+0x1c>)
 8000270:	2200      	movs	r2, #0
 8000272:	7820      	ldrb	r0, [r4, #0]
 8000274:	7861      	ldrb	r1, [r4, #1]
 8000276:	f000 f949 	bl	800050c <MGPIO_vSetPinValue>
 800027a:	78a0      	ldrb	r0, [r4, #2]
 800027c:	78e1      	ldrb	r1, [r4, #3]
 800027e:	2200      	movs	r2, #0
 8000280:	e8bd 4010 	ldmia.w	sp!, {r4, lr}
 8000284:	f000 b942 	b.w	800050c <MGPIO_vSetPinValue>
 8000288:	20000228 	.word	0x20000228

0800028c <SYSCFG_vConfigEXTI_Line>:
 800028c:	f001 03fc 	and.w	r3, r1, #252	; 0xfc
 8000290:	f103 4380 	add.w	r3, r3, #1073741824	; 0x40000000
 8000294:	f503 339c 	add.w	r3, r3, #79872	; 0x13800
 8000298:	f001 0103 	and.w	r1, r1, #3
 800029c:	689a      	ldr	r2, [r3, #8]
 800029e:	b510      	push	{r4, lr}
 80002a0:	0089      	lsls	r1, r1, #2
 80002a2:	240f      	movs	r4, #15
 80002a4:	408c      	lsls	r4, r1
 80002a6:	ea22 0204 	bic.w	r2, r2, r4
 80002aa:	609a      	str	r2, [r3, #8]
 80002ac:	689a      	ldr	r2, [r3, #8]
 80002ae:	fa00 f101 	lsl.w	r1, r0, r1
 80002b2:	4311      	orrs	r1, r2
 80002b4:	6099      	str	r1, [r3, #8]
 80002b6:	bd10      	pop	{r4, pc}

080002b8 <MEXTI_vEnableInterrupt>:
 80002b8:	4a03      	ldr	r2, [pc, #12]	; (80002c8 <MEXTI_vEnableInterrupt+0x10>)
 80002ba:	2301      	movs	r3, #1
 80002bc:	6811      	ldr	r1, [r2, #0]
 80002be:	fa03 f000 	lsl.w	r0, r3, r0
 80002c2:	4308      	orrs	r0, r1
 80002c4:	6010      	str	r0, [r2, #0]
 80002c6:	4770      	bx	lr
 80002c8:	40013c00 	.word	0x40013c00

080002cc <MEXTI_vInterruptTrigger>:
 80002cc:	2901      	cmp	r1, #1
 80002ce:	d00e      	beq.n	80002ee <MEXTI_vInterruptTrigger+0x22>
 80002d0:	d302      	bcc.n	80002d8 <MEXTI_vInterruptTrigger+0xc>
 80002d2:	2902      	cmp	r1, #2
 80002d4:	d014      	beq.n	8000300 <MEXTI_vInterruptTrigger+0x34>
 80002d6:	4770      	bx	lr
 80002d8:	4b0c      	ldr	r3, [pc, #48]	; (800030c <MEXTI_vInterruptTrigger+0x40>)
 80002da:	2101      	movs	r1, #1
 80002dc:	689a      	ldr	r2, [r3, #8]
 80002de:	4081      	lsls	r1, r0
 80002e0:	430a      	orrs	r2, r1
 80002e2:	609a      	str	r2, [r3, #8]
 80002e4:	68d8      	ldr	r0, [r3, #12]
 80002e6:	ea20 0101 	bic.w	r1, r0, r1
 80002ea:	60d9      	str	r1, [r3, #12]
 80002ec:	4770      	bx	lr
 80002ee:	4b07      	ldr	r3, [pc, #28]	; (800030c <MEXTI_vInterruptTrigger+0x40>)
 80002f0:	689a      	ldr	r2, [r3, #8]
 80002f2:	4081      	lsls	r1, r0
 80002f4:	ea22 0201 	bic.w	r2, r2, r1
 80002f8:	609a      	str	r2, [r3, #8]
 80002fa:	68d8      	ldr	r0, [r3, #12]
 80002fc:	4301      	orrs	r1, r0
 80002fe:	e7f4      	b.n	80002ea <MEXTI_vInterruptTrigger+0x1e>
 8000300:	4b02      	ldr	r3, [pc, #8]	; (800030c <MEXTI_vInterruptTrigger+0x40>)
 8000302:	2101      	movs	r1, #1
 8000304:	689a      	ldr	r2, [r3, #8]
 8000306:	4081      	lsls	r1, r0
 8000308:	430a      	orrs	r2, r1
 800030a:	e7f5      	b.n	80002f8 <MEXTI_vInterruptTrigger+0x2c>
 800030c:	40013c00 	.word	0x40013c00

08000310 <MEXTI_vCallBack>:
 8000310:	b111      	cbz	r1, 8000318 <MEXTI_vCallBack+0x8>
 8000312:	4b02      	ldr	r3, [pc, #8]	; (800031c <MEXTI_vCallBack+0xc>)
 8000314:	f843 1020 	str.w	r1, [r3, r0, lsl #2]
 8000318:	4770      	bx	lr
 800031a:	bf00      	nop
 800031c:	20000024 	.word	0x20000024

08000320 <EXTI0_IRQHandler>:
 8000320:	b508      	push	{r3, lr}
 8000322:	4b04      	ldr	r3, [pc, #16]	; (8000334 <EXTI0_IRQHandler+0x14>)
 8000324:	681b      	ldr	r3, [r3, #0]
 8000326:	4798      	blx	r3
 8000328:	4a03      	ldr	r2, [pc, #12]	; (8000338 <EXTI0_IRQHandler+0x18>)
 800032a:	6953      	ldr	r3, [r2, #20]
 800032c:	f043 0301 	orr.w	r3, r3, #1
 8000330:	6153      	str	r3, [r2, #20]
 8000332:	bd08      	pop	{r3, pc}
 8000334:	20000024 	.word	0x20000024
 8000338:	40013c00 	.word	0x40013c00

0800033c <EXTI1_IRQHandler>:
 800033c:	b508      	push	{r3, lr}
 800033e:	4b04      	ldr	r3, [pc, #16]	; (8000350 <EXTI1_IRQHandler+0x14>)
 8000340:	685b      	ldr	r3, [r3, #4]
 8000342:	4798      	blx	r3
 8000344:	4a03      	ldr	r2, [pc, #12]	; (8000354 <EXTI1_IRQHandler+0x18>)
 8000346:	6953      	ldr	r3, [r2, #20]
 8000348:	f043 0302 	orr.w	r3, r3, #2
 800034c:	6153      	str	r3, [r2, #20]
 800034e:	bd08      	pop	{r3, pc}
 8000350:	20000024 	.word	0x20000024
 8000354:	40013c00 	.word	0x40013c00

08000358 <EXTI2_IRQHandler>:
 8000358:	b508      	push	{r3, lr}
 800035a:	4b04      	ldr	r3, [pc, #16]	; (800036c <EXTI2_IRQHandler+0x14>)
 800035c:	689b      	ldr	r3, [r3, #8]
 800035e:	4798      	blx	r3
 8000360:	4a03      	ldr	r2, [pc, #12]	; (8000370 <EXTI2_IRQHandler+0x18>)
 8000362:	6953      	ldr	r3, [r2, #20]
 8000364:	f043 0304 	orr.w	r3, r3, #4
 8000368:	6153      	str	r3, [r2, #20]
 800036a:	bd08      	pop	{r3, pc}
 800036c:	20000024 	.word	0x20000024
 8000370:	40013c00 	.word	0x40013c00

08000374 <EXTI3_IRQHandler>:
 8000374:	b508      	push	{r3, lr}
 8000376:	4b04      	ldr	r3, [pc, #16]	; (8000388 <EXTI3_IRQHandler+0x14>)
 8000378:	68db      	ldr	r3, [r3, #12]
 800037a:	4798      	blx	r3
 800037c:	4a03      	ldr	r2, [pc, #12]	; (800038c <EXTI3_IRQHandler+0x18>)
 800037e:	6953      	ldr	r3, [r2, #20]
 8000380:	f043 0308 	orr.w	r3, r3, #8
 8000384:	6153      	str	r3, [r2, #20]
 8000386:	bd08      	pop	{r3, pc}
 8000388:	20000024 	.word	0x20000024
 800038c:	40013c00 	.word	0x40013c00

08000390 <EXTI4_IRQHandler>:
 8000390:	b508      	push	{r3, lr}
 8000392:	4b04      	ldr	r3, [pc, #16]	; (80003a4 <EXTI4_IRQHandler+0x14>)
 8000394:	691b      	ldr	r3, [r3, #16]
 8000396:	4798      	blx	r3
 8000398:	4a03      	ldr	r2, [pc, #12]	; (80003a8 <EXTI4_IRQHandler+0x18>)
 800039a:	6953      	ldr	r3, [r2, #20]
 800039c:	f043 0310 	orr.w	r3, r3, #16
 80003a0:	6153      	str	r3, [r2, #20]
 80003a2:	bd08      	pop	{r3, pc}
 80003a4:	20000024 	.word	0x20000024
 80003a8:	40013c00 	.word	0x40013c00

080003ac <EXTI9_5_IRQHandler>:
 80003ac:	b538      	push	{r3, r4, r5, lr}
 80003ae:	4c1e      	ldr	r4, [pc, #120]	; (8000428 <EXTI9_5_IRQHandler+0x7c>)
 80003b0:	4b1e      	ldr	r3, [pc, #120]	; (800042c <EXTI9_5_IRQHandler+0x80>)
 80003b2:	6961      	ldr	r1, [r4, #20]
 80003b4:	695a      	ldr	r2, [r3, #20]
 80003b6:	f011 0f20 	tst.w	r1, #32
 80003ba:	4625      	mov	r5, r4
 80003bc:	d006      	beq.n	80003cc <EXTI9_5_IRQHandler+0x20>
 80003be:	b12a      	cbz	r2, 80003cc <EXTI9_5_IRQHandler+0x20>
 80003c0:	4790      	blx	r2
 80003c2:	6963      	ldr	r3, [r4, #20]
 80003c4:	f043 0320 	orr.w	r3, r3, #32
 80003c8:	6163      	str	r3, [r4, #20]
 80003ca:	e009      	b.n	80003e0 <EXTI9_5_IRQHandler+0x34>
 80003cc:	6969      	ldr	r1, [r5, #20]
 80003ce:	699a      	ldr	r2, [r3, #24]
 80003d0:	0648      	lsls	r0, r1, #25
 80003d2:	d506      	bpl.n	80003e2 <EXTI9_5_IRQHandler+0x36>
 80003d4:	b12a      	cbz	r2, 80003e2 <EXTI9_5_IRQHandler+0x36>
 80003d6:	4790      	blx	r2
 80003d8:	696b      	ldr	r3, [r5, #20]
 80003da:	f043 0340 	orr.w	r3, r3, #64	; 0x40
 80003de:	616b      	str	r3, [r5, #20]
 80003e0:	bd38      	pop	{r3, r4, r5, pc}
 80003e2:	4c11      	ldr	r4, [pc, #68]	; (8000428 <EXTI9_5_IRQHandler+0x7c>)
 80003e4:	69da      	ldr	r2, [r3, #28]
 80003e6:	6961      	ldr	r1, [r4, #20]
 80003e8:	f011 0f80 	tst.w	r1, #128	; 0x80
 80003ec:	4625      	mov	r5, r4
 80003ee:	d005      	beq.n	80003fc <EXTI9_5_IRQHandler+0x50>
 80003f0:	b122      	cbz	r2, 80003fc <EXTI9_5_IRQHandler+0x50>
 80003f2:	4790      	blx	r2
 80003f4:	6963      	ldr	r3, [r4, #20]
 80003f6:	f043 0380 	orr.w	r3, r3, #128	; 0x80
 80003fa:	e7e5      	b.n	80003c8 <EXTI9_5_IRQHandler+0x1c>
 80003fc:	6969      	ldr	r1, [r5, #20]
 80003fe:	6a1a      	ldr	r2, [r3, #32]
 8000400:	05c9      	lsls	r1, r1, #23
 8000402:	d505      	bpl.n	8000410 <EXTI9_5_IRQHandler+0x64>
 8000404:	b122      	cbz	r2, 8000410 <EXTI9_5_IRQHandler+0x64>
 8000406:	4790      	blx	r2
 8000408:	696b      	ldr	r3, [r5, #20]
 800040a:	f443 7380 	orr.w	r3, r3, #256	; 0x100
 800040e:	e7e6      	b.n	80003de <EXTI9_5_IRQHandler+0x32>
 8000410:	4c05      	ldr	r4, [pc, #20]	; (8000428 <EXTI9_5_IRQHandler+0x7c>)
 8000412:	6a5b      	ldr	r3, [r3, #36]	; 0x24
 8000414:	6962      	ldr	r2, [r4, #20]
 8000416:	0592      	lsls	r2, r2, #22
 8000418:	d5e2      	bpl.n	80003e0 <EXTI9_5_IRQHandler+0x34>
 800041a:	2b00      	cmp	r3, #0
 800041c:	d0e0      	beq.n	80003e0 <EXTI9_5_IRQHandler+0x34>
 800041e:	4798      	blx	r3
 8000420:	6963      	ldr	r3, [r4, #20]
 8000422:	f443 7300 	orr.w	r3, r3, #512	; 0x200
 8000426:	e7cf      	b.n	80003c8 <EXTI9_5_IRQHandler+0x1c>
 8000428:	40013c00 	.word	0x40013c00
 800042c:	20000024 	.word	0x20000024

08000430 <EXTI15_10_IRQHandler>:
 8000430:	b538      	push	{r3, r4, r5, lr}
 8000432:	4c24      	ldr	r4, [pc, #144]	; (80004c4 <EXTI15_10_IRQHandler+0x94>)
 8000434:	4b24      	ldr	r3, [pc, #144]	; (80004c8 <EXTI15_10_IRQHandler+0x98>)
 8000436:	6961      	ldr	r1, [r4, #20]
 8000438:	6a9a      	ldr	r2, [r3, #40]	; 0x28
 800043a:	f411 6f80 	tst.w	r1, #1024	; 0x400
 800043e:	4625      	mov	r5, r4
 8000440:	d006      	beq.n	8000450 <EXTI15_10_IRQHandler+0x20>
 8000442:	b12a      	cbz	r2, 8000450 <EXTI15_10_IRQHandler+0x20>
 8000444:	4790      	blx	r2
 8000446:	6963      	ldr	r3, [r4, #20]
 8000448:	f443 6380 	orr.w	r3, r3, #1024	; 0x400
 800044c:	6163      	str	r3, [r4, #20]
 800044e:	bd38      	pop	{r3, r4, r5, pc}
 8000450:	6969      	ldr	r1, [r5, #20]
 8000452:	6ada      	ldr	r2, [r3, #44]	; 0x2c
 8000454:	0508      	lsls	r0, r1, #20
 8000456:	d506      	bpl.n	8000466 <EXTI15_10_IRQHandler+0x36>
 8000458:	b12a      	cbz	r2, 8000466 <EXTI15_10_IRQHandler+0x36>
 800045a:	4790      	blx	r2
 800045c:	696b      	ldr	r3, [r5, #20]
 800045e:	f443 6300 	orr.w	r3, r3, #2048	; 0x800
 8000462:	616b      	str	r3, [r5, #20]
 8000464:	e7f3      	b.n	800044e <EXTI15_10_IRQHandler+0x1e>
 8000466:	4c17      	ldr	r4, [pc, #92]	; (80004c4 <EXTI15_10_IRQHandler+0x94>)
 8000468:	6b1a      	ldr	r2, [r3, #48]	; 0x30
 800046a:	6961      	ldr	r1, [r4, #20]
 800046c:	f411 5f80 	tst.w	r1, #4096	; 0x1000
 8000470:	4625      	mov	r5, r4
 8000472:	d005      	beq.n	8000480 <EXTI15_10_IRQHandler+0x50>
 8000474:	b122      	cbz	r2, 8000480 <EXTI15_10_IRQHandler+0x50>
 8000476:	4790      	blx	r2
 8000478:	6963      	ldr	r3, [r4, #20]
 800047a:	f443 5380 	orr.w	r3, r3, #4096	; 0x1000
 800047e:	e7e5      	b.n	800044c <EXTI15_10_IRQHandler+0x1c>
 8000480:	6969      	ldr	r1, [r5, #20]
 8000482:	6b5a      	ldr	r2, [r3, #52]	; 0x34
 8000484:	0489      	lsls	r1, r1, #18
 8000486:	d505      	bpl.n	8000494 <EXTI15_10_IRQHandler+0x64>
 8000488:	b122      	cbz	r2, 8000494 <EXTI15_10_IRQHandler+0x64>
 800048a:	4790      	blx	r2
 800048c:	696b      	ldr	r3, [r5, #20]
 800048e:	f443 5300 	orr.w	r3, r3, #8192	; 0x2000
 8000492:	e7e6      	b.n	8000462 <EXTI15_10_IRQHandler+0x32>
 8000494:	4c0b      	ldr	r4, [pc, #44]	; (80004c4 <EXTI15_10_IRQHandler+0x94>)
 8000496:	6b9a      	ldr	r2, [r3, #56]	; 0x38
 8000498:	6961      	ldr	r1, [r4, #20]
 800049a:	f411 4f80 	tst.w	r1, #16384	; 0x4000
 800049e:	4625      	mov	r5, r4
 80004a0:	d005      	beq.n	80004ae <EXTI15_10_IRQHandler+0x7e>
 80004a2:	b122      	cbz	r2, 80004ae <EXTI15_10_IRQHandler+0x7e>
 80004a4:	4790      	blx	r2
 80004a6:	6963      	ldr	r3, [r4, #20]
 80004a8:	f443 4380 	orr.w	r3, r3, #16384	; 0x4000
 80004ac:	e7ce      	b.n	800044c <EXTI15_10_IRQHandler+0x1c>
 80004ae:	696a      	ldr	r2, [r5, #20]
 80004b0:	6bdb      	ldr	r3, [r3, #60]	; 0x3c
 80004b2:	0412      	lsls	r2, r2, #16
 80004b4:	d5cb      	bpl.n	800044e <EXTI15_10_IRQHandler+0x1e>
 80004b6:	2b00      	cmp	r3, #0
 80004b8:	d0c9      	beq.n	800044e <EXTI15_10_IRQHandler+0x1e>
 80004ba:	4798      	blx	r3
 80004bc:	696b      	ldr	r3, [r5, #20]
 80004be:	f443 4300 	orr.w	r3, r3, #32768	; 0x8000
 80004c2:	e7ce      	b.n	8000462 <EXTI15_10_IRQHandler+0x32>
 80004c4:	40013c00 	.word	0x40013c00
 80004c8:	20000024 	.word	0x20000024

080004cc <MGPIO_vSetPinMode>:
 80004cc:	2801      	cmp	r0, #1
 80004ce:	b510      	push	{r4, lr}
 80004d0:	d011      	beq.n	80004f6 <MGPIO_vSetPinMode+0x2a>
 80004d2:	d302      	bcc.n	80004da <MGPIO_vSetPinMode+0xe>
 80004d4:	2802      	cmp	r0, #2
 80004d6:	d010      	beq.n	80004fa <MGPIO_vSetPinMode+0x2e>
 80004d8:	bd10      	pop	{r4, pc}
 80004da:	4b09      	ldr	r3, [pc, #36]	; (8000500 <MGPIO_vSetPinMode+0x34>)
 80004dc:	6818      	ldr	r0, [r3, #0]
 80004de:	0049      	lsls	r1, r1, #1
 80004e0:	2403      	movs	r4, #3
 80004e2:	408c      	lsls	r4, r1
 80004e4:	ea20 0004 	bic.w	r0, r0, r4
 80004e8:	6018      	str	r0, [r3, #0]
 80004ea:	6818      	ldr	r0, [r3, #0]
 80004ec:	fa02 f101 	lsl.w	r1, r2, r1
 80004f0:	4301      	orrs	r1, r0
 80004f2:	6019      	str	r1, [r3, #0]
 80004f4:	e7f0      	b.n	80004d8 <MGPIO_vSetPinMode+0xc>
 80004f6:	4b03      	ldr	r3, [pc, #12]	; (8000504 <MGPIO_vSetPinMode+0x38>)
 80004f8:	e7f0      	b.n	80004dc <MGPIO_vSetPinMode+0x10>
 80004fa:	4b03      	ldr	r3, [pc, #12]	; (8000508 <MGPIO_vSetPinMode+0x3c>)
 80004fc:	e7ee      	b.n	80004dc <MGPIO_vSetPinMode+0x10>
 80004fe:	bf00      	nop
 8000500:	40020000 	.word	0x40020000
 8000504:	40020400 	.word	0x40020400
 8000508:	40020800 	.word	0x40020800

0800050c <MGPIO_vSetPinValue>:
 800050c:	2801      	cmp	r0, #1
 800050e:	d00e      	beq.n	800052e <MGPIO_vSetPinValue+0x22>
 8000510:	d302      	bcc.n	8000518 <MGPIO_vSetPinValue+0xc>
 8000512:	2802      	cmp	r0, #2
 8000514:	d00f      	beq.n	8000536 <MGPIO_vSetPinValue+0x2a>
 8000516:	4770      	bx	lr
 8000518:	2001      	movs	r0, #1
 800051a:	4b09      	ldr	r3, [pc, #36]	; (8000540 <MGPIO_vSetPinValue+0x34>)
 800051c:	4088      	lsls	r0, r1
 800051e:	2a01      	cmp	r2, #1
 8000520:	6959      	ldr	r1, [r3, #20]
 8000522:	bf0c      	ite	eq
 8000524:	4308      	orreq	r0, r1
 8000526:	ea21 0000 	bicne.w	r0, r1, r0
 800052a:	6158      	str	r0, [r3, #20]
 800052c:	4770      	bx	lr
 800052e:	4088      	lsls	r0, r1
 8000530:	2a01      	cmp	r2, #1
 8000532:	4b04      	ldr	r3, [pc, #16]	; (8000544 <MGPIO_vSetPinValue+0x38>)
 8000534:	e7f4      	b.n	8000520 <MGPIO_vSetPinValue+0x14>
 8000536:	2001      	movs	r0, #1
 8000538:	4088      	lsls	r0, r1
 800053a:	2a01      	cmp	r2, #1
 800053c:	4b02      	ldr	r3, [pc, #8]	; (8000548 <MGPIO_vSetPinValue+0x3c>)
 800053e:	e7ef      	b.n	8000520 <MGPIO_vSetPinValue+0x14>
 8000540:	40020000 	.word	0x40020000
 8000544:	40020400 	.word	0x40020400
 8000548:	40020800 	.word	0x40020800

0800054c <MGPIO_vSetAlternativeFunction>:
 800054c:	2801      	cmp	r0, #1
 800054e:	b510      	push	{r4, lr}
 8000550:	d023      	beq.n	800059a <MGPIO_vSetAlternativeFunction+0x4e>
 8000552:	d302      	bcc.n	800055a <MGPIO_vSetAlternativeFunction+0xe>
 8000554:	2802      	cmp	r0, #2
 8000556:	d040      	beq.n	80005da <MGPIO_vSetAlternativeFunction+0x8e>
 8000558:	bd10      	pop	{r4, pc}
 800055a:	2907      	cmp	r1, #7
 800055c:	4c28      	ldr	r4, [pc, #160]	; (8000600 <MGPIO_vSetAlternativeFunction+0xb4>)
 800055e:	d80c      	bhi.n	800057a <MGPIO_vSetAlternativeFunction+0x2e>
 8000560:	6a23      	ldr	r3, [r4, #32]
 8000562:	0089      	lsls	r1, r1, #2
 8000564:	200f      	movs	r0, #15
 8000566:	4088      	lsls	r0, r1
 8000568:	ea23 0300 	bic.w	r3, r3, r0
 800056c:	6223      	str	r3, [r4, #32]
 800056e:	6a23      	ldr	r3, [r4, #32]
 8000570:	fa02 f101 	lsl.w	r1, r2, r1
 8000574:	4319      	orrs	r1, r3
 8000576:	6221      	str	r1, [r4, #32]
 8000578:	e7ee      	b.n	8000558 <MGPIO_vSetAlternativeFunction+0xc>
 800057a:	f1a1 0008 	sub.w	r0, r1, #8
 800057e:	b2c0      	uxtb	r0, r0
 8000580:	6a63      	ldr	r3, [r4, #36]	; 0x24
 8000582:	0080      	lsls	r0, r0, #2
 8000584:	210f      	movs	r1, #15
 8000586:	4081      	lsls	r1, r0
 8000588:	ea23 0301 	bic.w	r3, r3, r1
 800058c:	6263      	str	r3, [r4, #36]	; 0x24
 800058e:	6a63      	ldr	r3, [r4, #36]	; 0x24
 8000590:	fa02 f100 	lsl.w	r1, r2, r0
 8000594:	4319      	orrs	r1, r3
 8000596:	6261      	str	r1, [r4, #36]	; 0x24
 8000598:	e7de      	b.n	8000558 <MGPIO_vSetAlternativeFunction+0xc>
 800059a:	2907      	cmp	r1, #7
 800059c:	4819      	ldr	r0, [pc, #100]	; (8000604 <MGPIO_vSetAlternativeFunction+0xb8>)
 800059e:	d80c      	bhi.n	80005ba <MGPIO_vSetAlternativeFunction+0x6e>
 80005a0:	6a03      	ldr	r3, [r0, #32]
 80005a2:	0089      	lsls	r1, r1, #2
 80005a4:	240f      	movs	r4, #15
 80005a6:	408c      	lsls	r4, r1
 80005a8:	ea23 0304 	bic.w	r3, r3, r4
 80005ac:	6203      	str	r3, [r0, #32]
 80005ae:	6a03      	ldr	r3, [r0, #32]
 80005b0:	fa02 f101 	lsl.w	r1, r2, r1
 80005b4:	4319      	orrs	r1, r3
 80005b6:	6201      	str	r1, [r0, #32]
 80005b8:	e7ce      	b.n	8000558 <MGPIO_vSetAlternativeFunction+0xc>
 80005ba:	f1a1 0308 	sub.w	r3, r1, #8
 80005be:	b2db      	uxtb	r3, r3
 80005c0:	6a44      	ldr	r4, [r0, #36]	; 0x24
 80005c2:	009b      	lsls	r3, r3, #2
 80005c4:	210f      	movs	r1, #15
 80005c6:	4099      	lsls	r1, r3
 80005c8:	ea24 0101 	bic.w	r1, r4, r1
 80005cc:	6241      	str	r1, [r0, #36]	; 0x24
 80005ce:	6a41      	ldr	r1, [r0, #36]	; 0x24
 80005d0:	fa02 f303 	lsl.w	r3, r2, r3
 80005d4:	430b      	orrs	r3, r1
 80005d6:	6243      	str	r3, [r0, #36]	; 0x24
 80005d8:	e7be      	b.n	8000558 <MGPIO_vSetAlternativeFunction+0xc>
 80005da:	2907      	cmp	r1, #7
 80005dc:	480a      	ldr	r0, [pc, #40]	; (8000608 <MGPIO_vSetAlternativeFunction+0xbc>)
 80005de:	d9df      	bls.n	80005a0 <MGPIO_vSetAlternativeFunction+0x54>
 80005e0:	3908      	subs	r1, #8
 80005e2:	b2c9      	uxtb	r1, r1
 80005e4:	6a43      	ldr	r3, [r0, #36]	; 0x24
 80005e6:	0089      	lsls	r1, r1, #2
 80005e8:	240f      	movs	r4, #15
 80005ea:	408c      	lsls	r4, r1
 80005ec:	ea23 0304 	bic.w	r3, r3, r4
 80005f0:	6243      	str	r3, [r0, #36]	; 0x24
 80005f2:	6a43      	ldr	r3, [r0, #36]	; 0x24
 80005f4:	fa02 f101 	lsl.w	r1, r2, r1
 80005f8:	4319      	orrs	r1, r3
 80005fa:	6241      	str	r1, [r0, #36]	; 0x24
 80005fc:	e7ac      	b.n	8000558 <MGPIO_vSetAlternativeFunction+0xc>
 80005fe:	bf00      	nop
 8000600:	40020000 	.word	0x40020000
 8000604:	40020400 	.word	0x40020400
 8000608:	40020800 	.word	0x40020800

0800060c <MNVIC_vEnableInterrupt>:
 800060c:	0942      	lsrs	r2, r0, #5
 800060e:	2301      	movs	r3, #1
 8000610:	f000 001f 	and.w	r0, r0, #31
 8000614:	fa03 f000 	lsl.w	r0, r3, r0
 8000618:	4b01      	ldr	r3, [pc, #4]	; (8000620 <MNVIC_vEnableInterrupt+0x14>)
 800061a:	f843 0022 	str.w	r0, [r3, r2, lsl #2]
 800061e:	4770      	bx	lr
 8000620:	e000e100 	.word	0xe000e100

08000624 <MRCC_vInit>:
 8000624:	4b08      	ldr	r3, [pc, #32]	; (8000648 <MRCC_vInit+0x24>)
 8000626:	681a      	ldr	r2, [r3, #0]
 8000628:	f042 0201 	orr.w	r2, r2, #1
 800062c:	601a      	str	r2, [r3, #0]
 800062e:	681a      	ldr	r2, [r3, #0]
 8000630:	0792      	lsls	r2, r2, #30
 8000632:	d5fc      	bpl.n	800062e <MRCC_vInit+0xa>
 8000634:	689a      	ldr	r2, [r3, #8]
 8000636:	f022 0203 	bic.w	r2, r2, #3
 800063a:	609a      	str	r2, [r3, #8]
 800063c:	4a02      	ldr	r2, [pc, #8]	; (8000648 <MRCC_vInit+0x24>)
 800063e:	6893      	ldr	r3, [r2, #8]
 8000640:	f013 0f0c 	tst.w	r3, #12
 8000644:	d1fb      	bne.n	800063e <MRCC_vInit+0x1a>
 8000646:	4770      	bx	lr
 8000648:	40023800 	.word	0x40023800

0800064c <MRCC_vEnableClock>:
 800064c:	285f      	cmp	r0, #95	; 0x5f
 800064e:	4b14      	ldr	r3, [pc, #80]	; (80006a0 <MRCC_vEnableClock+0x54>)
 8000650:	d908      	bls.n	8000664 <MRCC_vEnableClock+0x18>
 8000652:	3860      	subs	r0, #96	; 0x60
 8000654:	6c59      	ldr	r1, [r3, #68]	; 0x44
 8000656:	b2c0      	uxtb	r0, r0
 8000658:	2201      	movs	r2, #1
 800065a:	fa02 f000 	lsl.w	r0, r2, r0
 800065e:	4308      	orrs	r0, r1
 8000660:	6458      	str	r0, [r3, #68]	; 0x44
 8000662:	4770      	bx	lr
 8000664:	283f      	cmp	r0, #63	; 0x3f
 8000666:	d908      	bls.n	800067a <MRCC_vEnableClock+0x2e>
 8000668:	3840      	subs	r0, #64	; 0x40
 800066a:	6c19      	ldr	r1, [r3, #64]	; 0x40
 800066c:	b2c0      	uxtb	r0, r0
 800066e:	2201      	movs	r2, #1
 8000670:	fa02 f000 	lsl.w	r0, r2, r0
 8000674:	4308      	orrs	r0, r1
 8000676:	6418      	str	r0, [r3, #64]	; 0x40
 8000678:	4770      	bx	lr
 800067a:	281f      	cmp	r0, #31
 800067c:	d908      	bls.n	8000690 <MRCC_vEnableClock+0x44>
 800067e:	3820      	subs	r0, #32
 8000680:	6b59      	ldr	r1, [r3, #52]	; 0x34
 8000682:	b2c0      	uxtb	r0, r0
 8000684:	2201      	movs	r2, #1
 8000686:	fa02 f000 	lsl.w	r0, r2, r0
 800068a:	4308      	orrs	r0, r1
 800068c:	6358      	str	r0, [r3, #52]	; 0x34
 800068e:	4770      	bx	lr
 8000690:	6b19      	ldr	r1, [r3, #48]	; 0x30
 8000692:	2201      	movs	r2, #1
 8000694:	fa02 f000 	lsl.w	r0, r2, r0
 8000698:	4308      	orrs	r0, r1
 800069a:	6318      	str	r0, [r3, #48]	; 0x30
 800069c:	4770      	bx	lr
 800069e:	bf00      	nop
 80006a0:	40023800 	.word	0x40023800

080006a4 <SPI1_IRQHandler>:
 80006a4:	b510      	push	{r4, lr}
 80006a6:	4c09      	ldr	r4, [pc, #36]	; (80006cc <SPI1_IRQHandler+0x28>)
 80006a8:	68a2      	ldr	r2, [r4, #8]
 80006aa:	0792      	lsls	r2, r2, #30
 80006ac:	d503      	bpl.n	80006b6 <SPI1_IRQHandler+0x12>
 80006ae:	4b08      	ldr	r3, [pc, #32]	; (80006d0 <SPI1_IRQHandler+0x2c>)
 80006b0:	681b      	ldr	r3, [r3, #0]
 80006b2:	b103      	cbz	r3, 80006b6 <SPI1_IRQHandler+0x12>
 80006b4:	4798      	blx	r3
 80006b6:	68a3      	ldr	r3, [r4, #8]
 80006b8:	07db      	lsls	r3, r3, #31
 80006ba:	d505      	bpl.n	80006c8 <SPI1_IRQHandler+0x24>
 80006bc:	4b05      	ldr	r3, [pc, #20]	; (80006d4 <SPI1_IRQHandler+0x30>)
 80006be:	681b      	ldr	r3, [r3, #0]
 80006c0:	b113      	cbz	r3, 80006c8 <SPI1_IRQHandler+0x24>
 80006c2:	e8bd 4010 	ldmia.w	sp!, {r4, lr}
 80006c6:	4718      	bx	r3
 80006c8:	bd10      	pop	{r4, pc}
 80006ca:	bf00      	nop
 80006cc:	40013000 	.word	0x40013000
 80006d0:	20000074 	.word	0x20000074
 80006d4:	20000064 	.word	0x20000064

080006d8 <SPI2_IRQHandler>:
 80006d8:	4770      	bx	lr

080006da <SPI3_IRQHandler>:
 80006da:	4770      	bx	lr

080006dc <SPI4_IRQHandler>:
 80006dc:	4770      	bx	lr
	...

080006e0 <SysTick_Handler>:
 80006e0:	4b02      	ldr	r3, [pc, #8]	; (80006ec <SysTick_Handler+0xc>)
 80006e2:	681b      	ldr	r3, [r3, #0]
 80006e4:	b103      	cbz	r3, 80006e8 <SysTick_Handler+0x8>
 80006e6:	4718      	bx	r3
 80006e8:	4770      	bx	lr
 80006ea:	bf00      	nop
 80006ec:	20000084 	.word	0x20000084

080006f0 <GET_TIMER>:
 80006f0:	b570      	push	{r4, r5, r6, lr}
 80006f2:	4d09      	ldr	r5, [pc, #36]	; (8000718 <GET_TIMER+0x28>)
 80006f4:	4606      	mov	r6, r0
 80006f6:	cd0f      	ldmia	r5!, {r0, r1, r2, r3}
 80006f8:	b088      	sub	sp, #32
 80006fa:	466c      	mov	r4, sp
 80006fc:	c40f      	stmia	r4!, {r0, r1, r2, r3}
 80006fe:	e895 000f 	ldmia.w	r5, {r0, r1, r2, r3}
 8000702:	e884 000f 	stmia.w	r4, {r0, r1, r2, r3}
 8000706:	ab08      	add	r3, sp, #32
 8000708:	eb03 0686 	add.w	r6, r3, r6, lsl #2
 800070c:	f856 0c24 	ldr.w	r0, [r6, #-36]
 8000710:	f100 4080 	add.w	r0, r0, #1073741824	; 0x40000000
 8000714:	b008      	add	sp, #32
 8000716:	bd70      	pop	{r4, r5, r6, pc}
 8000718:	08000b0c 	.word	0x08000b0c

0800071c <TIMER_ICU>:
 800071c:	b5f8      	push	{r3, r4, r5, r6, r7, lr}
 800071e:	4605      	mov	r5, r0
 8000720:	3001      	adds	r0, #1
 8000722:	460c      	mov	r4, r1
 8000724:	f7ff ffe4 	bl	80006f0 <GET_TIMER>
 8000728:	eb04 0385 	add.w	r3, r4, r5, lsl #2
 800072c:	4d12      	ldr	r5, [pc, #72]	; (8000778 <TIMER_ICU+0x5c>)
 800072e:	6a01      	ldr	r1, [r0, #32]
 8000730:	f815 c003 	ldrb.w	ip, [r5, r3]
 8000734:	4e11      	ldr	r6, [pc, #68]	; (800077c <TIMER_ICU+0x60>)
 8000736:	eb00 0284 	add.w	r2, r0, r4, lsl #2
 800073a:	00a4      	lsls	r4, r4, #2
 800073c:	3401      	adds	r4, #1
 800073e:	2701      	movs	r7, #1
 8000740:	6b52      	ldr	r2, [r2, #52]	; 0x34
 8000742:	fa07 f404 	lsl.w	r4, r7, r4
 8000746:	f1bc 0f00 	cmp.w	ip, #0
 800074a:	d105      	bne.n	8000758 <TIMER_ICU+0x3c>
 800074c:	430c      	orrs	r4, r1
 800074e:	f846 2023 	str.w	r2, [r6, r3, lsl #2]
 8000752:	54ef      	strb	r7, [r5, r3]
 8000754:	6204      	str	r4, [r0, #32]
 8000756:	bdf8      	pop	{r3, r4, r5, r6, r7, pc}
 8000758:	ea21 0404 	bic.w	r4, r1, r4
 800075c:	4f08      	ldr	r7, [pc, #32]	; (8000780 <TIMER_ICU+0x64>)
 800075e:	f856 1023 	ldr.w	r1, [r6, r3, lsl #2]
 8000762:	f847 2023 	str.w	r2, [r7, r3, lsl #2]
 8000766:	1a52      	subs	r2, r2, r1
 8000768:	4906      	ldr	r1, [pc, #24]	; (8000784 <TIMER_ICU+0x68>)
 800076a:	6204      	str	r4, [r0, #32]
 800076c:	f841 2023 	str.w	r2, [r1, r3, lsl #2]
 8000770:	2200      	movs	r2, #0
 8000772:	54ea      	strb	r2, [r5, r3]
 8000774:	e7ef      	b.n	8000756 <TIMER_ICU+0x3a>
 8000776:	bf00      	nop
 8000778:	2000011c 	.word	0x2000011c
 800077c:	2000013c 	.word	0x2000013c
 8000780:	200001b0 	.word	0x200001b0
 8000784:	200000a8 	.word	0x200000a8

08000788 <TIM1_UP_TIM10_IRQHandler>:
 8000788:	b510      	push	{r4, lr}
 800078a:	4c0f      	ldr	r4, [pc, #60]	; (80007c8 <TIM1_UP_TIM10_IRQHandler+0x40>)
 800078c:	6921      	ldr	r1, [r4, #16]
 800078e:	f011 0101 	ands.w	r1, r1, #1
 8000792:	d008      	beq.n	80007a6 <TIM1_UP_TIM10_IRQHandler+0x1e>
 8000794:	4b0d      	ldr	r3, [pc, #52]	; (80007cc <TIM1_UP_TIM10_IRQHandler+0x44>)
 8000796:	681b      	ldr	r3, [r3, #0]
 8000798:	b103      	cbz	r3, 800079c <TIM1_UP_TIM10_IRQHandler+0x14>
 800079a:	4798      	blx	r3
 800079c:	6923      	ldr	r3, [r4, #16]
 800079e:	f023 0301 	bic.w	r3, r3, #1
 80007a2:	6123      	str	r3, [r4, #16]
 80007a4:	bd10      	pop	{r4, pc}
 80007a6:	4c0a      	ldr	r4, [pc, #40]	; (80007d0 <TIM1_UP_TIM10_IRQHandler+0x48>)
 80007a8:	6923      	ldr	r3, [r4, #16]
 80007aa:	079a      	lsls	r2, r3, #30
 80007ac:	d506      	bpl.n	80007bc <TIM1_UP_TIM10_IRQHandler+0x34>
 80007ae:	2006      	movs	r0, #6
 80007b0:	f7ff ffb4 	bl	800071c <TIMER_ICU>
 80007b4:	6923      	ldr	r3, [r4, #16]
 80007b6:	f023 0302 	bic.w	r3, r3, #2
 80007ba:	6123      	str	r3, [r4, #16]
 80007bc:	6923      	ldr	r3, [r4, #16]
 80007be:	07db      	lsls	r3, r3, #31
 80007c0:	d5f0      	bpl.n	80007a4 <TIM1_UP_TIM10_IRQHandler+0x1c>
 80007c2:	4b02      	ldr	r3, [pc, #8]	; (80007cc <TIM1_UP_TIM10_IRQHandler+0x44>)
 80007c4:	699b      	ldr	r3, [r3, #24]
 80007c6:	e7e7      	b.n	8000798 <TIM1_UP_TIM10_IRQHandler+0x10>
 80007c8:	40010000 	.word	0x40010000
 80007cc:	20000088 	.word	0x20000088
 80007d0:	40014400 	.word	0x40014400

080007d4 <TIM1_TRG_COM_TIM11_IRQHandler>:
 80007d4:	4b0f      	ldr	r3, [pc, #60]	; (8000814 <TIM1_TRG_COM_TIM11_IRQHandler+0x40>)
 80007d6:	691a      	ldr	r2, [r3, #16]
 80007d8:	0691      	lsls	r1, r2, #26
 80007da:	b510      	push	{r4, lr}
 80007dc:	d419      	bmi.n	8000812 <TIM1_TRG_COM_TIM11_IRQHandler+0x3e>
 80007de:	6919      	ldr	r1, [r3, #16]
 80007e0:	f3c1 1180 	ubfx	r1, r1, #6, #1
 80007e4:	b9a9      	cbnz	r1, 8000812 <TIM1_TRG_COM_TIM11_IRQHandler+0x3e>
 80007e6:	4c0c      	ldr	r4, [pc, #48]	; (8000818 <TIM1_TRG_COM_TIM11_IRQHandler+0x44>)
 80007e8:	6923      	ldr	r3, [r4, #16]
 80007ea:	079a      	lsls	r2, r3, #30
 80007ec:	d506      	bpl.n	80007fc <TIM1_TRG_COM_TIM11_IRQHandler+0x28>
 80007ee:	2007      	movs	r0, #7
 80007f0:	f7ff ff94 	bl	800071c <TIMER_ICU>
 80007f4:	6923      	ldr	r3, [r4, #16]
 80007f6:	f023 0302 	bic.w	r3, r3, #2
 80007fa:	6123      	str	r3, [r4, #16]
 80007fc:	6923      	ldr	r3, [r4, #16]
 80007fe:	07db      	lsls	r3, r3, #31
 8000800:	d507      	bpl.n	8000812 <TIM1_TRG_COM_TIM11_IRQHandler+0x3e>
 8000802:	4b06      	ldr	r3, [pc, #24]	; (800081c <TIM1_TRG_COM_TIM11_IRQHandler+0x48>)
 8000804:	69db      	ldr	r3, [r3, #28]
 8000806:	b103      	cbz	r3, 800080a <TIM1_TRG_COM_TIM11_IRQHandler+0x36>
 8000808:	4798      	blx	r3
 800080a:	6923      	ldr	r3, [r4, #16]
 800080c:	f023 0301 	bic.w	r3, r3, #1
 8000810:	6123      	str	r3, [r4, #16]
 8000812:	bd10      	pop	{r4, pc}
 8000814:	40010000 	.word	0x40010000
 8000818:	40014800 	.word	0x40014800
 800081c:	20000088 	.word	0x20000088

08000820 <TIM1_BRK_TIM9_IRQHandler>:
 8000820:	4b13      	ldr	r3, [pc, #76]	; (8000870 <TIM1_BRK_TIM9_IRQHandler+0x50>)
 8000822:	6919      	ldr	r1, [r3, #16]
 8000824:	f3c1 11c0 	ubfx	r1, r1, #7, #1
 8000828:	b510      	push	{r4, lr}
 800082a:	b9a9      	cbnz	r1, 8000858 <TIM1_BRK_TIM9_IRQHandler+0x38>
 800082c:	4c11      	ldr	r4, [pc, #68]	; (8000874 <TIM1_BRK_TIM9_IRQHandler+0x54>)
 800082e:	6923      	ldr	r3, [r4, #16]
 8000830:	0798      	lsls	r0, r3, #30
 8000832:	d512      	bpl.n	800085a <TIM1_BRK_TIM9_IRQHandler+0x3a>
 8000834:	2005      	movs	r0, #5
 8000836:	f7ff ff71 	bl	800071c <TIMER_ICU>
 800083a:	6923      	ldr	r3, [r4, #16]
 800083c:	f023 0302 	bic.w	r3, r3, #2
 8000840:	6123      	str	r3, [r4, #16]
 8000842:	6923      	ldr	r3, [r4, #16]
 8000844:	07db      	lsls	r3, r3, #31
 8000846:	d507      	bpl.n	8000858 <TIM1_BRK_TIM9_IRQHandler+0x38>
 8000848:	4b0b      	ldr	r3, [pc, #44]	; (8000878 <TIM1_BRK_TIM9_IRQHandler+0x58>)
 800084a:	695b      	ldr	r3, [r3, #20]
 800084c:	b103      	cbz	r3, 8000850 <TIM1_BRK_TIM9_IRQHandler+0x30>
 800084e:	4798      	blx	r3
 8000850:	6923      	ldr	r3, [r4, #16]
 8000852:	f023 0301 	bic.w	r3, r3, #1
 8000856:	6123      	str	r3, [r4, #16]
 8000858:	bd10      	pop	{r4, pc}
 800085a:	6923      	ldr	r3, [r4, #16]
 800085c:	075a      	lsls	r2, r3, #29
 800085e:	d5f0      	bpl.n	8000842 <TIM1_BRK_TIM9_IRQHandler+0x22>
 8000860:	2101      	movs	r1, #1
 8000862:	2005      	movs	r0, #5
 8000864:	f7ff ff5a 	bl	800071c <TIMER_ICU>
 8000868:	6923      	ldr	r3, [r4, #16]
 800086a:	f023 0304 	bic.w	r3, r3, #4
 800086e:	e7e7      	b.n	8000840 <TIM1_BRK_TIM9_IRQHandler+0x20>
 8000870:	40010000 	.word	0x40010000
 8000874:	40014000 	.word	0x40014000
 8000878:	20000088 	.word	0x20000088

0800087c <TIM1_CC_IRQHandler>:
 800087c:	b510      	push	{r4, lr}
 800087e:	4c16      	ldr	r4, [pc, #88]	; (80008d8 <TIM1_CC_IRQHandler+0x5c>)
 8000880:	6920      	ldr	r0, [r4, #16]
 8000882:	f3c0 0040 	ubfx	r0, r0, #1, #1
 8000886:	b140      	cbz	r0, 800089a <TIM1_CC_IRQHandler+0x1e>
 8000888:	2100      	movs	r1, #0
 800088a:	4608      	mov	r0, r1
 800088c:	f7ff ff46 	bl	800071c <TIMER_ICU>
 8000890:	6923      	ldr	r3, [r4, #16]
 8000892:	f023 0302 	bic.w	r3, r3, #2
 8000896:	6123      	str	r3, [r4, #16]
 8000898:	bd10      	pop	{r4, pc}
 800089a:	6922      	ldr	r2, [r4, #16]
 800089c:	f3c2 0280 	ubfx	r2, r2, #2, #1
 80008a0:	b132      	cbz	r2, 80008b0 <TIM1_CC_IRQHandler+0x34>
 80008a2:	2101      	movs	r1, #1
 80008a4:	f7ff ff3a 	bl	800071c <TIMER_ICU>
 80008a8:	6923      	ldr	r3, [r4, #16]
 80008aa:	f023 0304 	bic.w	r3, r3, #4
 80008ae:	e7f2      	b.n	8000896 <TIM1_CC_IRQHandler+0x1a>
 80008b0:	6920      	ldr	r0, [r4, #16]
 80008b2:	f3c0 00c0 	ubfx	r0, r0, #3, #1
 80008b6:	b138      	cbz	r0, 80008c8 <TIM1_CC_IRQHandler+0x4c>
 80008b8:	2102      	movs	r1, #2
 80008ba:	4610      	mov	r0, r2
 80008bc:	f7ff ff2e 	bl	800071c <TIMER_ICU>
 80008c0:	6923      	ldr	r3, [r4, #16]
 80008c2:	f023 0308 	bic.w	r3, r3, #8
 80008c6:	e7e6      	b.n	8000896 <TIM1_CC_IRQHandler+0x1a>
 80008c8:	2103      	movs	r1, #3
 80008ca:	f7ff ff27 	bl	800071c <TIMER_ICU>
 80008ce:	6923      	ldr	r3, [r4, #16]
 80008d0:	f023 0310 	bic.w	r3, r3, #16
 80008d4:	e7df      	b.n	8000896 <TIM1_CC_IRQHandler+0x1a>
 80008d6:	bf00      	nop
 80008d8:	40010000 	.word	0x40010000

080008dc <TIM2_IRQHandler>:
 80008dc:	b510      	push	{r4, lr}
 80008de:	f04f 4480 	mov.w	r4, #1073741824	; 0x40000000
 80008e2:	6923      	ldr	r3, [r4, #16]
 80008e4:	079b      	lsls	r3, r3, #30
 80008e6:	d515      	bpl.n	8000914 <TIM2_IRQHandler+0x38>
 80008e8:	2100      	movs	r1, #0
 80008ea:	2001      	movs	r0, #1
 80008ec:	f7ff ff16 	bl	800071c <TIMER_ICU>
 80008f0:	6923      	ldr	r3, [r4, #16]
 80008f2:	f023 0302 	bic.w	r3, r3, #2
 80008f6:	6123      	str	r3, [r4, #16]
 80008f8:	f04f 4480 	mov.w	r4, #1073741824	; 0x40000000
 80008fc:	6923      	ldr	r3, [r4, #16]
 80008fe:	07db      	lsls	r3, r3, #31
 8000900:	d507      	bpl.n	8000912 <TIM2_IRQHandler+0x36>
 8000902:	4b15      	ldr	r3, [pc, #84]	; (8000958 <TIM2_IRQHandler+0x7c>)
 8000904:	685b      	ldr	r3, [r3, #4]
 8000906:	b103      	cbz	r3, 800090a <TIM2_IRQHandler+0x2e>
 8000908:	4798      	blx	r3
 800090a:	6923      	ldr	r3, [r4, #16]
 800090c:	f023 0301 	bic.w	r3, r3, #1
 8000910:	6123      	str	r3, [r4, #16]
 8000912:	bd10      	pop	{r4, pc}
 8000914:	6923      	ldr	r3, [r4, #16]
 8000916:	0758      	lsls	r0, r3, #29
 8000918:	d507      	bpl.n	800092a <TIM2_IRQHandler+0x4e>
 800091a:	2101      	movs	r1, #1
 800091c:	4608      	mov	r0, r1
 800091e:	f7ff fefd 	bl	800071c <TIMER_ICU>
 8000922:	6923      	ldr	r3, [r4, #16]
 8000924:	f023 0304 	bic.w	r3, r3, #4
 8000928:	e7e5      	b.n	80008f6 <TIM2_IRQHandler+0x1a>
 800092a:	6923      	ldr	r3, [r4, #16]
 800092c:	0719      	lsls	r1, r3, #28
 800092e:	d507      	bpl.n	8000940 <TIM2_IRQHandler+0x64>
 8000930:	2102      	movs	r1, #2
 8000932:	2001      	movs	r0, #1
 8000934:	f7ff fef2 	bl	800071c <TIMER_ICU>
 8000938:	6923      	ldr	r3, [r4, #16]
 800093a:	f023 0308 	bic.w	r3, r3, #8
 800093e:	e7da      	b.n	80008f6 <TIM2_IRQHandler+0x1a>
 8000940:	6923      	ldr	r3, [r4, #16]
 8000942:	06da      	lsls	r2, r3, #27
 8000944:	d5d8      	bpl.n	80008f8 <TIM2_IRQHandler+0x1c>
 8000946:	2103      	movs	r1, #3
 8000948:	2001      	movs	r0, #1
 800094a:	f7ff fee7 	bl	800071c <TIMER_ICU>
 800094e:	6923      	ldr	r3, [r4, #16]
 8000950:	f023 0310 	bic.w	r3, r3, #16
 8000954:	e7cf      	b.n	80008f6 <TIM2_IRQHandler+0x1a>
 8000956:	bf00      	nop
 8000958:	20000088 	.word	0x20000088

0800095c <TIM3_IRQHandler>:
 800095c:	b510      	push	{r4, lr}
 800095e:	4c1d      	ldr	r4, [pc, #116]	; (80009d4 <TIM3_IRQHandler+0x78>)
 8000960:	6923      	ldr	r3, [r4, #16]
 8000962:	079b      	lsls	r3, r3, #30
 8000964:	d514      	bpl.n	8000990 <TIM3_IRQHandler+0x34>
 8000966:	2100      	movs	r1, #0
 8000968:	2002      	movs	r0, #2
 800096a:	f7ff fed7 	bl	800071c <TIMER_ICU>
 800096e:	6923      	ldr	r3, [r4, #16]
 8000970:	f023 0302 	bic.w	r3, r3, #2
 8000974:	6123      	str	r3, [r4, #16]
 8000976:	4c17      	ldr	r4, [pc, #92]	; (80009d4 <TIM3_IRQHandler+0x78>)
 8000978:	6923      	ldr	r3, [r4, #16]
 800097a:	07db      	lsls	r3, r3, #31
 800097c:	d507      	bpl.n	800098e <TIM3_IRQHandler+0x32>
 800097e:	4b16      	ldr	r3, [pc, #88]	; (80009d8 <TIM3_IRQHandler+0x7c>)
 8000980:	689b      	ldr	r3, [r3, #8]
 8000982:	b103      	cbz	r3, 8000986 <TIM3_IRQHandler+0x2a>
 8000984:	4798      	blx	r3
 8000986:	6923      	ldr	r3, [r4, #16]
 8000988:	f023 0301 	bic.w	r3, r3, #1
 800098c:	6123      	str	r3, [r4, #16]
 800098e:	bd10      	pop	{r4, pc}
 8000990:	6923      	ldr	r3, [r4, #16]
 8000992:	0758      	lsls	r0, r3, #29
 8000994:	d507      	bpl.n	80009a6 <TIM3_IRQHandler+0x4a>
 8000996:	2101      	movs	r1, #1
 8000998:	2002      	movs	r0, #2
 800099a:	f7ff febf 	bl	800071c <TIMER_ICU>
 800099e:	6923      	ldr	r3, [r4, #16]
 80009a0:	f023 0304 	bic.w	r3, r3, #4
 80009a4:	e7e6      	b.n	8000974 <TIM3_IRQHandler+0x18>
 80009a6:	6923      	ldr	r3, [r4, #16]
 80009a8:	0719      	lsls	r1, r3, #28
 80009aa:	d507      	bpl.n	80009bc <TIM3_IRQHandler+0x60>
 80009ac:	2102      	movs	r1, #2
 80009ae:	4608      	mov	r0, r1
 80009b0:	f7ff feb4 	bl	800071c <TIMER_ICU>
 80009b4:	6923      	ldr	r3, [r4, #16]
 80009b6:	f023 0308 	bic.w	r3, r3, #8
 80009ba:	e7db      	b.n	8000974 <TIM3_IRQHandler+0x18>
 80009bc:	6923      	ldr	r3, [r4, #16]
 80009be:	06da      	lsls	r2, r3, #27
 80009c0:	d5d9      	bpl.n	8000976 <TIM3_IRQHandler+0x1a>
 80009c2:	2103      	movs	r1, #3
 80009c4:	2002      	movs	r0, #2
 80009c6:	f7ff fea9 	bl	800071c <TIMER_ICU>
 80009ca:	6923      	ldr	r3, [r4, #16]
 80009cc:	f023 0310 	bic.w	r3, r3, #16
 80009d0:	e7d0      	b.n	8000974 <TIM3_IRQHandler+0x18>
 80009d2:	bf00      	nop
 80009d4:	40000400 	.word	0x40000400
 80009d8:	20000088 	.word	0x20000088

080009dc <main>:
 80009dc:	b57f      	push	{r0, r1, r2, r3, r4, r5, r6, lr}
 80009de:	f7ff fe21 	bl	8000624 <MRCC_vInit>
 80009e2:	2000      	movs	r0, #0
 80009e4:	f7ff fe32 	bl	800064c <MRCC_vEnableClock>
 80009e8:	2001      	movs	r0, #1
 80009ea:	f7ff fe2f 	bl	800064c <MRCC_vEnableClock>
 80009ee:	2002      	movs	r0, #2
 80009f0:	f7ff fe2c 	bl	800064c <MRCC_vEnableClock>
 80009f4:	206e      	movs	r0, #110	; 0x6e
 80009f6:	f7ff fe29 	bl	800064c <MRCC_vEnableClock>
 80009fa:	2064      	movs	r0, #100	; 0x64
 80009fc:	f7ff fe26 	bl	800064c <MRCC_vEnableClock>
 8000a00:	2051      	movs	r0, #81	; 0x51
 8000a02:	f7ff fe23 	bl	800064c <MRCC_vEnableClock>
 8000a06:	2065      	movs	r0, #101	; 0x65
 8000a08:	f7ff fe20 	bl	800064c <MRCC_vEnableClock>
 8000a0c:	2060      	movs	r0, #96	; 0x60
 8000a0e:	f7ff fe1d 	bl	800064c <MRCC_vEnableClock>
 8000a12:	2201      	movs	r2, #1
 8000a14:	210d      	movs	r1, #13
 8000a16:	2002      	movs	r0, #2
 8000a18:	f7ff fd58 	bl	80004cc <MGPIO_vSetPinMode>
 8000a1c:	2200      	movs	r2, #0
 8000a1e:	210d      	movs	r1, #13
 8000a20:	2002      	movs	r0, #2
 8000a22:	f7ff fd73 	bl	800050c <MGPIO_vSetPinValue>
 8000a26:	2308      	movs	r3, #8
 8000a28:	2217      	movs	r2, #23
 8000a2a:	e9cd 3203 	strd	r3, r2, [sp, #12]
 8000a2e:	2101      	movs	r1, #1
 8000a30:	2200      	movs	r2, #0
 8000a32:	e9cd 3101 	strd	r3, r1, [sp, #4]
 8000a36:	9200      	str	r2, [sp, #0]
 8000a38:	2302      	movs	r3, #2
 8000a3a:	4610      	mov	r0, r2
 8000a3c:	f7ff fbd8 	bl	80001f0 <HAL_MOTOR_Init>
 8000a40:	f7ff fc14 	bl	800026c <HAL_MOTOR_STOP>
 8000a44:	4c03      	ldr	r4, [pc, #12]	; (8000a54 <main+0x78>)
 8000a46:	6823      	ldr	r3, [r4, #0]
 8000a48:	f5b3 7f00 	cmp.w	r3, #512	; 0x200
 8000a4c:	d1fc      	bne.n	8000a48 <main+0x6c>
 8000a4e:	f7ff fc0d 	bl	800026c <HAL_MOTOR_STOP>
 8000a52:	e7f8      	b.n	8000a46 <main+0x6a>
 8000a54:	20000224 	.word	0x20000224

08000a58 <Reset_Handler>:
 8000a58:	480d      	ldr	r0, [pc, #52]	; (8000a90 <LoopForever+0x2>)
 8000a5a:	4685      	mov	sp, r0
 8000a5c:	f3af 8000 	nop.w
 8000a60:	480c      	ldr	r0, [pc, #48]	; (8000a94 <LoopForever+0x6>)
 8000a62:	490d      	ldr	r1, [pc, #52]	; (8000a98 <LoopForever+0xa>)
 8000a64:	4a0d      	ldr	r2, [pc, #52]	; (8000a9c <LoopForever+0xe>)
 8000a66:	2300      	movs	r3, #0
 8000a68:	e002      	b.n	8000a70 <LoopCopyDataInit>

08000a6a <CopyDataInit>:
 8000a6a:	58d4      	ldr	r4, [r2, r3]
 8000a6c:	50c4      	str	r4, [r0, r3]
 8000a6e:	3304      	adds	r3, #4

08000a70 <LoopCopyDataInit>:
 8000a70:	18c4      	adds	r4, r0, r3
 8000a72:	428c      	cmp	r4, r1
 8000a74:	d3f9      	bcc.n	8000a6a <CopyDataInit>
 8000a76:	4a0a      	ldr	r2, [pc, #40]	; (8000aa0 <LoopForever+0x12>)
 8000a78:	4c0a      	ldr	r4, [pc, #40]	; (8000aa4 <LoopForever+0x16>)
 8000a7a:	2300      	movs	r3, #0
 8000a7c:	e001      	b.n	8000a82 <LoopFillZerobss>

08000a7e <FillZerobss>:
 8000a7e:	6013      	str	r3, [r2, #0]
 8000a80:	3204      	adds	r2, #4

08000a82 <LoopFillZerobss>:
 8000a82:	42a2      	cmp	r2, r4
 8000a84:	d3fb      	bcc.n	8000a7e <FillZerobss>
 8000a86:	f000 f811 	bl	8000aac <__libc_init_array>
 8000a8a:	f7ff ffa7 	bl	80009dc <main>

08000a8e <LoopForever>:
 8000a8e:	e7fe      	b.n	8000a8e <LoopForever>
 8000a90:	20010000 	.word	0x20010000
 8000a94:	20000000 	.word	0x20000000
 8000a98:	20000000 	.word	0x20000000
 8000a9c:	08000b34 	.word	0x08000b34
 8000aa0:	20000000 	.word	0x20000000
 8000aa4:	20000234 	.word	0x20000234

08000aa8 <ADC_IRQHandler>:
 8000aa8:	e7fe      	b.n	8000aa8 <ADC_IRQHandler>
	...

08000aac <__libc_init_array>:
 8000aac:	b570      	push	{r4, r5, r6, lr}
 8000aae:	4e0d      	ldr	r6, [pc, #52]	; (8000ae4 <__libc_init_array+0x38>)
 8000ab0:	4c0d      	ldr	r4, [pc, #52]	; (8000ae8 <__libc_init_array+0x3c>)
 8000ab2:	1ba4      	subs	r4, r4, r6
 8000ab4:	10a4      	asrs	r4, r4, #2
 8000ab6:	2500      	movs	r5, #0
 8000ab8:	42a5      	cmp	r5, r4
 8000aba:	d109      	bne.n	8000ad0 <__libc_init_array+0x24>
 8000abc:	4e0b      	ldr	r6, [pc, #44]	; (8000aec <__libc_init_array+0x40>)
 8000abe:	4c0c      	ldr	r4, [pc, #48]	; (8000af0 <__libc_init_array+0x44>)
 8000ac0:	f000 f818 	bl	8000af4 <_init>
 8000ac4:	1ba4      	subs	r4, r4, r6
 8000ac6:	10a4      	asrs	r4, r4, #2
 8000ac8:	2500      	movs	r5, #0
 8000aca:	42a5      	cmp	r5, r4
 8000acc:	d105      	bne.n	8000ada <__libc_init_array+0x2e>
 8000ace:	bd70      	pop	{r4, r5, r6, pc}
 8000ad0:	f856 3025 	ldr.w	r3, [r6, r5, lsl #2]
 8000ad4:	4798      	blx	r3
 8000ad6:	3501      	adds	r5, #1
 8000ad8:	e7ee      	b.n	8000ab8 <__libc_init_array+0xc>
 8000ada:	f856 3025 	ldr.w	r3, [r6, r5, lsl #2]
 8000ade:	4798      	blx	r3
 8000ae0:	3501      	adds	r5, #1
 8000ae2:	e7f2      	b.n	8000aca <__libc_init_array+0x1e>
 8000ae4:	08000b2c 	.word	0x08000b2c
 8000ae8:	08000b2c 	.word	0x08000b2c
 8000aec:	08000b2c 	.word	0x08000b2c
 8000af0:	08000b30 	.word	0x08000b30

08000af4 <_init>:
 8000af4:	b5f8      	push	{r3, r4, r5, r6, r7, lr}
 8000af6:	bf00      	nop
 8000af8:	bcf8      	pop	{r3, r4, r5, r6, r7}
 8000afa:	bc08      	pop	{r3}
 8000afc:	469e      	mov	lr, r3
 8000afe:	4770      	bx	lr

08000b00 <_fini>:
 8000b00:	b5f8      	push	{r3, r4, r5, r6, r7, lr}
 8000b02:	bf00      	nop
 8000b04:	bcf8      	pop	{r3, r4, r5, r6, r7}
 8000b06:	bc08      	pop	{r3}
 8000b08:	469e      	mov	lr, r3
 8000b0a:	4770      	bx	lr
